; Function Attrs: mustprogress nofree norecurse nosync nounwind willreturn memory(argmem: readwrite) uwtable
define hidden noundef double @_ZN11opencv_test9randomNanIdEET_RN2cv3RNGE(ptr nocapture noundef nonnull align 8 dereferenceable(8) %0) local_unnamed_addr #9 {
  %2 = load i64, ptr %0, align 8
  %3 = and i64 %2, 4294967295
  %4 = mul nuw i64 %3, 4164903690
  %5 = lshr i64 %2, 32
  %6 = add nuw i64 %4, %5
  %7 = and i64 %6, 4294967295
  %8 = mul nuw i64 %7, 4164903690
  %9 = lshr i64 %6, 32
  %10 = add nuw i64 %8, %9
  store i64 %10, ptr %0, align 8
  %11 = shl i64 %6, 32
  %12 = and i64 %10, 4294967294
  %13 = or disjoint i64 %12, %11
  %14 = or i64 %13, 9218868437227405313
  %15 = bitcast i64 %14 to double
  ret double %15
}